; Function Attrs: mustprogress uwtable
define void @_ZN2cv4gapi5fluid6Buffer4Priv9writeDoneEv(ptr noundef nonnull align 8 captures(none) dereferenceable(188) %0) local_unnamed_addr #4 align 2 {
  %2 = getelementptr inbounds nuw i8, ptr %0, i64 160
  %3 = load ptr, ptr %2, align 8, !tbaa !114
  %4 = getelementptr inbounds nuw i8, ptr %0, i64 132
  %5 = load i32, ptr %4, align 4, !tbaa !115
  %6 = getelementptr inbounds nuw i8, ptr %0, i64 72
  %7 = load i32, ptr %6, align 8, !tbaa !140
  %8 = load ptr, ptr %3, align 8, !tbaa !13
  %9 = getelementptr inbounds nuw i8, ptr %8, i64 56
  %10 = load ptr, ptr %9, align 8
  tail call void %10(ptr noundef nonnull align 8 dereferenceable(104) %3, i32 noundef %5, i32 noundef %7)
  %11 = load i32, ptr %6, align 8, !tbaa !140
  %12 = load i32, ptr %4, align 4, !tbaa !115
  %13 = add nsw i32 %12, %11
  store i32 %13, ptr %4, align 4, !tbaa !115
  %14 = load ptr, ptr %2, align 8, !tbaa !114
  %15 = icmp sgt i32 %11, 0
  br i1 %15, label %.lr.ph.preheader.i, label %_ZN2cv4gapi5fluid13BufferStorage14updateOutCacheERNS1_6Buffer5CacheEii.exit

.lr.ph.preheader.i:                               ; preds = %1
  %wide.trip.count.i = zext nneg i32 %11 to i64
  br label %.lr.ph.i

.lr.ph.i:                                         ; preds = %.lr.ph.i, %.lr.ph.preheader.i
  %indvars.iv.i = phi i64 [ 0, %.lr.ph.preheader.i ], [ %indvars.iv.next.i, %.lr.ph.i ]
  %16 = load ptr, ptr %14, align 8, !tbaa !13
  %17 = getelementptr inbounds nuw i8, ptr %16, i64 32
  %18 = load ptr, ptr %17, align 8
  %19 = trunc i64 %indvars.iv.i to i32
  %20 = add i32 %13, %19
  %21 = tail call noundef ptr %18(ptr noundef nonnull align 8 dereferenceable(104) %14, i32 noundef %20)
  %22 = load ptr, ptr %0, align 8, !tbaa !62
  %23 = getelementptr inbounds nuw ptr, ptr %22, i64 %indvars.iv.i
  store ptr %21, ptr %23, align 8, !tbaa !60
  %indvars.iv.next.i = add nuw nsw i64 %indvars.iv.i, 1
  %exitcond.not.i = icmp eq i64 %indvars.iv.next.i, %wide.trip.count.i
  br i1 %exitcond.not.i, label %_ZN2cv4gapi5fluid13BufferStorage14updateOutCacheERNS1_6Buffer5CacheEii.exit, label %.lr.ph.i, !llvm.loop !64

_ZN2cv4gapi5fluid13BufferStorage14updateOutCacheERNS1_6Buffer5CacheEii.exit: ; preds = %.lr.ph.i, %1
  ret void
}